target datalayout = "e-m:e-p270:32:32-p271:32:32-p272:64:64-i64:64-i128:128-f80:128-n8:16:32:64-S128"
target triple = "x86_64-pc-linux-gnu"

@.str = private unnamed_addr constant [33 x i8] c"../openssl/crypto/bio/bio_sock.c\00", align 1
@__func__.BIO_sock_info = private unnamed_addr constant [14 x i8] c"BIO_sock_info\00", align 1
@.str.5 = private unnamed_addr constant [22 x i8] c"calling getsockname()\00", align 1

; Function Attrs: nounwind uwtable
define i32 @BIO_sock_info(i32 noundef %0, i32 noundef %1, ptr noundef %2) #0 {
  %4 = alloca i32, align 4
  %5 = alloca i32, align 4
  %6 = alloca i32, align 4
  %7 = alloca ptr, align 8
  %8 = alloca i32, align 4
  %9 = alloca i32, align 4
  %10 = alloca i32, align 4
  store i32 %0, ptr %5, align 4, !tbaa !10
  store i32 %1, ptr %6, align 4, !tbaa !10
  store ptr %2, ptr %7, align 8, !tbaa !21
  %11 = load i32, ptr %6, align 4, !tbaa !10
  switch i32 %11, label %32 [
    i32 0, label %12
  ]

12:                                               ; preds = %3
  call void @llvm.lifetime.start.p0(i64 4, ptr %8) #8
  call void @llvm.lifetime.start.p0(i64 4, ptr %9) #8
  store i32 0, ptr %9, align 4, !tbaa !10
  store i32 112, ptr %8, align 4, !tbaa !10
  %13 = load i32, ptr %5, align 4, !tbaa !10
  %14 = load ptr, ptr %7, align 8, !tbaa !21
  %15 = load ptr, ptr %14, align 8, !tbaa !23
  %16 = call ptr @BIO_ADDR_sockaddr_noconst(ptr noundef %15)
  %17 = call i32 @getsockname(i32 noundef %13, ptr noundef %16, ptr noundef %8) #8
  store i32 %17, ptr %9, align 4, !tbaa !10
  %18 = load i32, ptr %9, align 4, !tbaa !10
  %19 = icmp eq i32 %18, -1
  br i1 %19, label %20, label %23

20:                                               ; preds = %12
  call void @ERR_new()
  call void @ERR_set_debug(ptr noundef @.str, i32 noundef 408, ptr noundef @__func__.BIO_sock_info)
  %21 = call ptr @__errno_location() #9
  %22 = load i32, ptr %21, align 4, !tbaa !10
  call void (i32, i32, ptr, ...) @ERR_set_error(i32 noundef 2, i32 noundef %22, ptr noundef @.str.5)
  call void @ERR_new()
  call void @ERR_set_debug(ptr noundef @.str, i32 noundef 410, ptr noundef @__func__.BIO_sock_info)
  call void (i32, i32, ptr, ...) @ERR_set_error(i32 noundef 32, i32 noundef 132, ptr noundef null)
  store i32 0, ptr %4, align 4
  store i32 1, ptr %10, align 4
  br label %29

23:                                               ; preds = %12
  %24 = load i32, ptr %8, align 4, !tbaa !10
  %25 = zext i32 %24 to i64
  %26 = icmp ugt i64 %25, 112
  br i1 %26, label %27, label %28

27:                                               ; preds = %23
  call void @ERR_new()
  call void @ERR_set_debug(ptr noundef @.str, i32 noundef 414, ptr noundef @__func__.BIO_sock_info)
  call void (i32, i32, ptr, ...) @ERR_set_error(i32 noundef 32, i32 noundef 133, ptr noundef null)
  store i32 0, ptr %4, align 4
  store i32 1, ptr %10, align 4
  br label %29

28:                                               ; preds = %23
  store i32 0, ptr %10, align 4
  br label %29

29:                                               ; preds = %28, %27, %20
  call void @llvm.lifetime.end.p0(i64 4, ptr %9) #8
  call void @llvm.lifetime.end.p0(i64 4, ptr %8) #8
  %30 = load i32, ptr %10, align 4
  switch i32 %30, label %36 [
    i32 0, label %31
    i32 1, label %34
  ]

31:                                               ; preds = %29
  br label %33

32:                                               ; preds = %3
  call void @ERR_new()
  call void @ERR_set_debug(ptr noundef @.str, i32 noundef 420, ptr noundef @__func__.BIO_sock_info)
  call void (i32, i32, ptr, ...) @ERR_set_error(i32 noundef 32, i32 noundef 140, ptr noundef null)
  store i32 0, ptr %4, align 4
  br label %34

33:                                               ; preds = %31
  store i32 1, ptr %4, align 4
  br label %34

34:                                               ; preds = %33, %32, %29
  %35 = load i32, ptr %4, align 4
  ret i32 %35

36:                                               ; preds = %29
  unreachable
}