; Function Attrs: nounwind uwtable
define range(i32 0, 2) i32 @BIO_sock_info(i32 noundef %0, i32 noundef %1, ptr noundef readonly captures(none) %2) local_unnamed_addr #0 {
  %4 = alloca i32, align 4
  %cond = icmp eq i32 %1, 0
  br i1 %cond, label %5, label %17

5:                                                ; preds = %3
  call void @llvm.lifetime.start.p0(i64 4, ptr nonnull %4) #9
  store i32 112, ptr %4, align 4, !tbaa !11
  %6 = load ptr, ptr %2, align 8, !tbaa !15
  %7 = tail call ptr @BIO_ADDR_sockaddr_noconst(ptr noundef %6) #9
  %8 = call i32 @getsockname(i32 noundef %0, ptr noundef %7, ptr noundef nonnull %4) #9
  %9 = icmp eq i32 %8, -1
  br i1 %9, label %10, label %13

10:                                               ; preds = %5
  call void @ERR_new() #9
  call void @ERR_set_debug(ptr noundef nonnull @.str, i32 noundef 408, ptr noundef nonnull @__func__.BIO_sock_info) #9
  %11 = tail call ptr @__errno_location() #10
  %12 = load i32, ptr %11, align 4, !tbaa !11
  call void (i32, i32, ptr, ...) @ERR_set_error(i32 noundef 2, i32 noundef %12, ptr noundef nonnull @.str.5) #9
  br label %.thread

13:                                               ; preds = %5
  %14 = load i32, ptr %4, align 4, !tbaa !11
  %15 = icmp ugt i32 %14, 112
  br i1 %15, label %.thread, label %16

.thread:                                          ; preds = %13, %10
  %.sink8 = phi i32 [ 410, %10 ], [ 414, %13 ]
  %.sink = phi i32 [ 132, %10 ], [ 133, %13 ]
  call void @ERR_new() #9
  call void @ERR_set_debug(ptr noundef nonnull @.str, i32 noundef %.sink8, ptr noundef nonnull @__func__.BIO_sock_info) #9
  call void (i32, i32, ptr, ...) @ERR_set_error(i32 noundef 32, i32 noundef %.sink, ptr noundef null) #9
  call void @llvm.lifetime.end.p0(i64 4, ptr nonnull %4) #9
  br label %18

16:                                               ; preds = %13
  call void @llvm.lifetime.end.p0(i64 4, ptr nonnull %4) #9
  br label %18

17:                                               ; preds = %3
  tail call void @ERR_new() #9
  tail call void @ERR_set_debug(ptr noundef nonnull @.str, i32 noundef 420, ptr noundef nonnull @__func__.BIO_sock_info) #9
  tail call void (i32, i32, ptr, ...) @ERR_set_error(i32 noundef 32, i32 noundef 140, ptr noundef null) #9
  br label %18

18:                                               ; preds = %16, %.thread, %17
  %.1 = phi i32 [ 0, %17 ], [ 1, %16 ], [ 0, %.thread ]
  ret i32 %.1
}